target datalayout = "e-m:e-p270:32:32-p271:32:32-p272:64:64-i64:64-i128:128-f80:128-n8:16:32:64-S128"
target triple = "x86_64-pc-linux-gnu"

@.str.4 = private unnamed_addr constant [53 x i8] c"%s\0A%s file name: %s\0A%s\0A%s machine-generated by: %s\0A\0A\00", align 1
@.str.5 = private unnamed_addr constant [9 x i8] c"%Y-%m-%d\00", align 1

; Function Attrs: mustprogress nounwind uwtable
define void @usrc_writeFileNameGeneratedBy(ptr noundef %0, ptr noundef %1, ptr noundef %2, ptr noundef %3) #0 {
  %5 = alloca ptr, align 8
  %6 = alloca ptr, align 8
  %7 = alloca ptr, align 8
  %8 = alloca ptr, align 8
  %9 = alloca [1024 x i8], align 16
  %10 = alloca ptr, align 8
  %11 = alloca i64, align 8
  %12 = alloca ptr, align 8
  store ptr %0, ptr %5, align 8, !tbaa !25
  store ptr %1, ptr %6, align 8, !tbaa !17
  store ptr %2, ptr %7, align 8, !tbaa !17
  store ptr %3, ptr %8, align 8, !tbaa !17
  call void @llvm.lifetime.start.p0(i64 1024, ptr %9) #16
  call void @llvm.lifetime.start.p0(i64 8, ptr %10) #16
  call void @llvm.lifetime.start.p0(i64 8, ptr %11) #16
  call void @llvm.lifetime.start.p0(i64 8, ptr %12) #16
  store ptr @.str.4, ptr %12, align 8, !tbaa !17
  %13 = call i64 @time(ptr noundef %11) #16
  %14 = call ptr @localtime(ptr noundef %11) #16
  store ptr %14, ptr %10, align 8, !tbaa !28
  %15 = load ptr, ptr %8, align 8, !tbaa !17
  %16 = icmp eq ptr %15, null
  br i1 %16, label %17, label %30

17:                                               ; preds = %4
  %18 = getelementptr inbounds [1024 x i8], ptr %9, i64 0, i64 0
  %19 = load ptr, ptr %10, align 8, !tbaa !28
  %20 = call i64 @strftime(ptr noundef %18, i64 noundef 1024, ptr noundef @.str.5, ptr noundef %19) #16
  %21 = load ptr, ptr %5, align 8, !tbaa !25
  %22 = load ptr, ptr %12, align 8, !tbaa !17
  %23 = load ptr, ptr %6, align 8, !tbaa !17
  %24 = load ptr, ptr %6, align 8, !tbaa !17
  %25 = load ptr, ptr %7, align 8, !tbaa !17
  %26 = load ptr, ptr %6, align 8, !tbaa !17
  %27 = load ptr, ptr %6, align 8, !tbaa !17
  %28 = getelementptr inbounds [1024 x i8], ptr %9, i64 0, i64 0
  %29 = call i32 (ptr, ptr, ...) @fprintf(ptr noundef %21, ptr noundef %22, ptr noundef %23, ptr noundef %24, ptr noundef %25, ptr noundef %26, ptr noundef %27, ptr noundef %28) #16
  br label %40

30:                                               ; preds = %4
  %31 = load ptr, ptr %5, align 8, !tbaa !25
  %32 = load ptr, ptr %12, align 8, !tbaa !17
  %33 = load ptr, ptr %6, align 8, !tbaa !17
  %34 = load ptr, ptr %6, align 8, !tbaa !17
  %35 = load ptr, ptr %7, align 8, !tbaa !17
  %36 = load ptr, ptr %6, align 8, !tbaa !17
  %37 = load ptr, ptr %6, align 8, !tbaa !17
  %38 = load ptr, ptr %8, align 8, !tbaa !17
  %39 = call i32 (ptr, ptr, ...) @fprintf(ptr noundef %31, ptr noundef %32, ptr noundef %33, ptr noundef %34, ptr noundef %35, ptr noundef %36, ptr noundef %37, ptr noundef %38) #16
  br label %40

40:                                               ; preds = %30, %17
  call void @llvm.lifetime.end.p0(i64 8, ptr %12) #16
  call void @llvm.lifetime.end.p0(i64 8, ptr %11) #16
  call void @llvm.lifetime.end.p0(i64 8, ptr %10) #16
  call void @llvm.lifetime.end.p0(i64 1024, ptr %9) #16
  ret void
}