; Function Attrs: mustprogress nounwind uwtable
define void @usrc_writeFileNameGeneratedBy(ptr noundef captures(none) %0, ptr noundef %1, ptr noundef %2, ptr noundef %3) local_unnamed_addr #0 {
  %5 = alloca [1024 x i8], align 16
  %6 = alloca i64, align 8
  call void @llvm.lifetime.start.p0(i64 1024, ptr nonnull %5) #24
  call void @llvm.lifetime.start.p0(i64 8, ptr nonnull %6) #24
  %7 = call i64 @time(ptr noundef nonnull %6) #24
  %8 = call ptr @localtime(ptr noundef nonnull %6) #24
  %9 = icmp eq ptr %3, null
  br i1 %9, label %10, label %12

10:                                               ; preds = %4
  %11 = call i64 @strftime(ptr noundef nonnull %5, i64 noundef 1024, ptr noundef nonnull @.str.5, ptr noundef %8) #24
  br label %12

12:                                               ; preds = %4, %10
  %.sink = phi ptr [ %5, %10 ], [ %3, %4 ]
  %13 = call i32 (ptr, ptr, ...) @fprintf(ptr noundef %0, ptr noundef nonnull @.str.4, ptr noundef %1, ptr noundef %1, ptr noundef %2, ptr noundef %1, ptr noundef %1, ptr noundef nonnull %.sink) #24
  call void @llvm.lifetime.end.p0(i64 8, ptr nonnull %6) #24
  call void @llvm.lifetime.end.p0(i64 1024, ptr nonnull %5) #24
  ret void
}